(lp1
F17
aF69.989999999999995
aF94.989999999999995
aF99.989999999999995
aF99.989999999999995
aF159.99000000000001
aF159.99000000000001
aF169.99000000000001
aF179.99000000000001
aF179.99000000000001
aF199
aF199
aF199.99000000000001
aF199.99000000000001
aF199.99000000000001
aF199.99000000000001
aF199.99000000000001
aF229
aF229.99000000000001
aF239
aF239.99000000000001
aF239.99000000000001
aF249
aF249
aF249
aF249.99000000000001
aF249.99000000000001
aF249.99000000000001
aF249.99000000000001
aF249.99000000000001
aF256.23000000000002
aF259.99000000000001
aF259.99000000000001
aF274.99000000000001
aF299
aF299
aF299
aF299
aF299.99000000000001
aF299.99000000000001
aF299.99000000000001
aF299.99000000000001
aF299.99000000000001
aF299.99000000000001
aF319.99000000000001
aF319.99000000000001
aF329.99000000000001
aF329.99000000000001
aF329.99000000000001
aF329.99000000000001
aF349.99000000000001
aF349.99000000000001
aF359.99000000000001
aF359.99000000000001
aF379.99000000000001
aF399
aF399
aF399
aF399
aF399
aF399.99000000000001
aF399.99000000000001
aF399.99000000000001
aF399.99000000000001
aF399.99000000000001
aF399.99000000000001
aF399.99000000000001
aF410
aF419
aF419
aF429.99000000000001
aF429.99000000000001
aF429.99000000000001
aF429.99000000000001
aF429.99000000000001
aF439.99000000000001
aF444.99000000000001
aF449
aF449
aF449
aF449
aF449
aF449
aF449.99000000000001
aF449.99000000000001
aF449.99000000000001
aF459.99000000000001
aF459.99000000000001
aF459.99000000000001
aF469.99000000000001
aF469.99000000000001
aF484.99000000000001
aF484.99000000000001
aF489
aF499
aF499
aF499.99000000000001
aF499.99000000000001
aF499.99000000000001
aF499.99000000000001
aF499.99000000000001
aF529
aF529
aF529
aF529.99000000000001
aF539
aF539.99000000000001
aF539.99000000000001
aF539.99000000000001
aF539.99000000000001
aF549
aF549
aF549
aF549
aF549
aF549.99000000000001
aF549.99000000000001
aF549.99000000000001
aF559.99000000000001
aF579.99000000000001
aF589.99000000000001
aF599
aF599
aF599.99000000000001
aF599.99000000000001
aF599.99000000000001
aF599.99000000000001
aF610
aF619.99000000000001
aF619.99000000000001
aF629.99000000000001
aF649
aF649
aF649
aF649
aF649
aF649.99000000000001
aF689
aF689
aF699
aF699
aF699
aF699.99000000000001
aF699.99000000000001
aF699.99000000000001
aF699.99000000000001
aF699.99000000000001
aF699.99000000000001
aF699.99000000000001
aF699.99000000000001
aF699.99000000000001
aF699.99000000000001
aF749
aF779.99000000000001
aF779.99000000000001
aF789
aF799.99000000000001
aF799.99000000000001
aF799.99000000000001
aF799.99000000000001
a.