(lp1
I16384
aI16384
aI19200
aI20480
aI20480
aI20480
aI20480
aI20480
aI20480
aI20480
aI20480
aI20480
aI20480
aI20480
aI20480
aI20480
aI20480
aI20480
aI20480
aI20480
aI20480
aI23232
aI38400
aI38400
aI38720
aI38720
aI38720
aI38720
aI38720
aI38720
aI38720
aI38720
aI38720
aI38720
aI38720
aI38720
aI38720
aI38720
aI38720
aI38720
aI38720
aI38720
aI38720
aI38720
aI38720
aI38720
aI38720
aI38720
aI38720
aI38720
aI38720
aI38720
aI62400
aI76800
aI76800
aI76800
aI76800
aI76800
aI76800
aI76800
aI76800
aI76800
aI76800
aI76800
aI76800
aI76800
aI76800
aI76800
aI76800
aI76800
aI76800
aI76800
aI76800
aI76800
aI76800
aI76800
aI76800
aI76800
aI76800
aI76800
aI76800
aI76800
aI76800
aI76800
aI76800
aI76800
aI76800
aI76800
aI76800
aI76800
aI76800
aI76800
aI76800
aI76800
aI76800
aI76800
aI76800
aI76800
aI76800
aI76800
aI76800
aI76800
aI76800
aI76800
aI76800
aI76800
aI76800
aI76800
aI76800
aI76800
aI76800
aI76800
aI76800
aI76800
aI76800
aI76800
aI76800
aI76800
aI76800
aI76800
aI76800
aI76800
aI76800
aI76800
aI76800
aI76800
aI76800
aI76800
aI76800
aI76800
aI76800
aI76800
aI76800
aI80000
aI96000
aI96000
aI96000
aI96000
aI96000
aI96000
aI96000
aI96000
aI96000
aI96000
aI96000
aI96000
aI96000
aI96000
aI96000
aI96000
aI96000
aI96000
aI96000
aI96000
aI96000
aI102400
aI102400
aI102400
aI102400
aI128000
aI128000
aI128000
aI130560
aI153600
aI153600
aI153600
aI153600
aI153600
aI153600
aI153600
aI153600
aI153600
aI153600
aI153600
aI153600
aI153600
aI153600
aI153600
aI153600
aI153600
aI153600
aI153600
aI153600
aI153600
aI153600
aI153600
aI153600
aI153600
aI153600
aI153600
aI153600
aI172800
aI172800
aI172800
aI172800
aI172800
aI172800
aI172800
aI172800
aI172800
aI230400
aI307200
aI307200
aI307200
aI307200
aI307200
aI307200
aI307200
aI307200
aI307200
aI307200
aI307200
aI307200
aI307200
aI320000
aI384000
aI384000
aI384000
aI384000
aI384000
aI384000
aI384000
aI384000
aI384000
aI384000
aI384000
aI384000
aI384000
aI384000
aI384000
aI384000
aI384000
aI384000
aI384000
aI384000
aI384000
aI384000
aI384000
aI384000
aI384000
aI384000
aI384000
aI384000
aI384000
aI384000
aI384000
aI384000
aI384000
aI384000
aI384000
aI384000
aI384000
aI384000
aI384000
aI384000
aI384000
aI384000
aI384000
aI384000
aI384000
aI384000
aI384000
aI384000
aI384000
aI384000
aI384000
aI384000
aI384000
aI384000
aI384000
aI384000
aI384000
aI384000
aI384000
aI384000
aI384000
aI384000
aI384000
aI384000
aI384000
aI384000
aI384000
aI384000
aI384000
aI409920
aI409920
aI409920
aI409920
aI409920
aI409920
aI409920
aI409920
aI480000
aI518400
aI518400
aI518400
aI518400
aI518400
aI518400
aI518400
aI518400
aI518400
aI518400
aI518400
aI518400
aI518400
aI518400
aI518400
aI518400
aI518400
aI518400
aI518400
aI518400
aI518400
aI518400
aI518400
aI518400
aI518400
aI518400
aI518400
aI518400
aI518400
aI768000
aI786432
aI921600
aI921600
aI921600
aI921600
aI921600
aI921600
aI921600
aI921600
aI921600
aI921600
aI921600
aI921600
aI921600
aI921600
aI921600
aI921600
aI921600
aI921600
aI921600
aI921600
aI921600
aI921600
aI921600
aI921600
aI921600
aI921600
aI921600
aI921600
aI921600
aI921600
aI921600
aI921600
aI921600
aI921600
aI921600
aI921600
aI921600
aI921600
aI921600
aI921600
aI921600
aI921600
aI921600
aI921600
aI921600
aI921600
aI921600
aI921600
aI921600
aI972800
aI972800
aI972800
aI983040
aI983040
aI983040
aI983040
aI983040
aI1024000
aI1024000
aI2073600
aI2073600
aI2073600
aI2073600
aI2073600
aI2073600
aI2073600
aI2073600
aI2073600
aI2073600
aI2073600
aI2073600
aI2073600
aI2073600
aI2073600
aI2073600
aI2073600
aI2073600
aI2073600
aI2073600
aI2073600
aI2073600
aI2073600
aI2073600
aI2073600
aI2073600
aI2073600
aI2073600
aI2073600
aI2073600
aI2073600
a.