(dp1
S'count_list'
p2
(lp3
I1
aI1
aI1
aI1
aI1
aI1
aI1
aI1
aI1
aI2
aI1
aI1
aI1
aI1
aI1
aI1
aI1
aI1
aI3
aI1
aI1
aI1
aI1
aI1
aI1
aI1
aI1
aI1
aI1
aI1
aI1
aI1
aI1
aI1
aI1
aI1
aI1
aI1
aI2
aI1
aI1
aI1
aI1
aI2
aI1
aI1
aI1
aI1
aI2
aI1
aI2
aI1
aI3
aI2
aI1
aI1
aI2
aI2
aI1
aI1
aI1
aI1
aI3
aI2
aI3
aI1
aI1
aI3
aI2
aI2
aI1
aI3
aI1
aI1
aI3
aI1
aI1
aI2
aI2
aI2
aI2
aI3
aI1
aI2
aI2
aI2
aI2
aI2
aI3
aI4
aI2
aI2
aI6
aI6
aI4
aI4
aI4
aI4
aI5
aI6
aI3
aI3
aI4
aI4
aI3
aI5
aI4
aI5
aI3
aI1
aI2
aI7
aI3
aI4
aI6
aI5
aI7
aI6
aI5
aI9
aI7
aI10
aI13
aI11
aI11
aI5
aI13
aI14
aI14
aI9
aI10
aI18
aI14
aI11
aI18
aI23
aI27
aI23
aI25
aI21
asS'r_set'
p4
(lp5
I501
aI454
aI413
aI307
aI277
aI276
aI257
aI238
aI235
aI220
aI217
aI210
aI207
aI197
aI195
aI190
aI188
aI187
aI185
aI181
aI179
aI178
aI174
aI173
aI172
aI170
aI169
aI166
aI164
aI160
aI159
aI154
aI152
aI148
aI146
aI145
aI139
aI135
aI134
aI132
aI130
aI129
aI127
aI126
aI123
aI121
aI120
aI115
aI114
aI111
aI110
aI109
aI108
aI102
aI101
aI100
aI99
aI98
aI97
aI96
aI95
aI93
aI90
aI89
aI88
aI86
aI85
aI82
aI81
aI79
aI78
aI76
aI73
aI72
aI71
aI70
aI68
aI66
aI64
aI63
aI62
aI60
aI59
aI58
aI57
aI55
aI54
aI53
aI52
aI51
aI50
aI49
aI48
aI47
aI46
aI44
aI43
aI42
aI41
aI40
aI39
aI38
aI37
aI36
aI35
aI34
aI33
aI32
aI31
aI30
aI29
aI28
aI27
aI26
aI25
aI24
aI23
aI22
aI21
aI20
aI19
aI18
aI17
aI16
aI15
aI14
aI13
aI12
aI11
aI10
aI9
aI8
aI7
aI6
aI5
aI4
aI3
aI2
aI1
aI0
as.