(lp1
F0.10000000000000001
aF0.10000000000000001
aF0.10000000000000001
aF0.10000000000000001
aF0.10000000000000001
aF0.128
aF0.128
aF0.128
aF0.128
aF0.128
aF0.128
aF0.14999999999999999
aF0.14999999999999999
aF0.14999999999999999
aF0.185
aF0.189
aF0.189
aF0.189
aF0.189
aF0.189
aF0.20000000000000001
aF0.217
aF0.217
aF0.25600000000000001
aF0.25600000000000001
aF0.25600000000000001
aF0.25600000000000001
aF0.25600000000000001
aF0.25600000000000001
aF0.25600000000000001
aF0.25600000000000001
aF0.25600000000000001
aF0.25600000000000001
aF0.26000000000000001
aF0.51200000000000001
aF0.51200000000000001
aF0.51200000000000001
aF0.51200000000000001
aF0.51200000000000001
aF0.51200000000000001
aF0.51200000000000001
aF0.51200000000000001
aF0.51200000000000001
aF0.59999999999999998
aF1
aF1
aF1
aF1
aF1
aF2
aF2
aF2
aF2
aF2
aF2
aF2
aF2
aF2
aF2
aF2
aF2
aF2
aF2
aF2
aF2
aF2
aF2
aF2
aF2
aF2
aF2
aF2
aF2
aF2
aF2
aF2
aF2
aF2
aF2
aF2
aF2
aF2
aF2
aF2
aF4
aF4
aF4
aF4
aF4
aF4
aF4
aF4
aF4
aF4
aF4
aF4
aF4
aF4
aF4
aF4
aF4
aF4
aF4
aF4
aF4
aF4
aF4
aF4
aF4
aF4
aF6
aF6
aF6
aF6
aF6
aF6
aF6
aF6
aF6
aF6
aF6
aF6
aF6
aF6
aF6
aF6
aF6
aF6
aF6
aF6
aF6
aF6
aF6
aF6
aF6
aF6
aF6
aF6
aF6
aF6
aF6
aF6
aF6
aF6
aF6
aF6
aF6
aF6
aF6
aF6
aF6
aF6
aF6
aF6
aF6
aF6
aF6
aF6
aF6
aF6
aF8
aF8
aF8
aF8
aF8
aF8
aF8
aF8
aF8
aF8
aF8
aF8
aF8
aF8
aF8
aF8
aF8
aF8
aF8
aF8
aF8
aF8
aF8
aF8
aF8
aF8
aF8
aF8
aF8
aF8
aF8
aF8
aF8
aF8
aF8
aF8
aF8
aF8
aF8
aF8
aF8
aF8
aF8
aF8
aF8
aF8
aF8
aF8
aF8
aF8
aF8
aF8
aF8
aF8
aF8
aF8
aF8
aF8
aF16
aF16
aF16
aF16
aF16
aF16
aF16
aF16
aF16
aF16
aF16
aF16
aF16
aF16
aF16
aF16
aF16
aF16
aF16
aF16
aF16
aF16
aF16
aF16
aF16
aF16
aF16
aF16
aF16
aF16
aF16
aF16
aF16
aF16
aF16
aF16
aF16
aF16
aF16
aF16
aF16
aF16
aF16
aF16
aF16
aF16
aF16
aF16
aF16
aF16
aF16
aF16
aF16
aF16
aF16
aF16
aF16
aF16
aF16
aF16
aF16
aF16
aF16
aF16
aF16
aF16
aF16
aF16
aF32
aF32
aF32
aF32
aF32
aF32
aF32
aF32
aF32
aF32
aF32
aF32
aF32
aF32
aF32
aF32
aF32
aF32
aF32
aF32
aF32
aF32
aF32
aF32
aF32
aF32
aF32
aF32
aF32
aF32
aF32
aF32
aF32
aF32
aF32
aF32
aF32
aF32
aF32
aF32
aF32
a.