(lp1
F0.10000000000000001
aF0.10000000000000001
aF0.10000000000000001
aF0.10000000000000001
aF0.10000000000000001
aF0.10000000000000001
aF0.10000000000000001
aF0.10000000000000001
aF0.10000000000000001
aF0.10000000000000001
aF0.10000000000000001
aF0.10000000000000001
aF0.10000000000000001
aF0.10000000000000001
aF0.10000000000000001
aF0.10000000000000001
aF0.10000000000000001
aF0.10000000000000001
aF0.10000000000000001
aF0.10000000000000001
aF0.10000000000000001
aF0.10000000000000001
aF0.10000000000000001
aF0.10000000000000001
aF0.192
aF0.312
aF0.312
aF0.40000000000000002
aF0.46800000000000003
aF0.47999999999999998
aF0.51200000000000001
aF0.51200000000000001
aF0.52800000000000002
aF0.59999999999999998
aF0.59999999999999998
aF0.59999999999999998
aF0.59999999999999998
aF0.59999999999999998
aF0.80000000000000004
aF0.80000000000000004
aF0.80000000000000004
aF0.80000000000000004
aF0.80000000000000004
aF0.80000000000000004
aF0.80000000000000004
aF0.80000000000000004
aF0.80000000000000004
aF0.80000000000000004
aF0.80000000000000004
aF0.84999999999999998
aF0.84999999999999998
aF0.84999999999999998
aF0.90000000000000002
aF0.90000000000000002
aF0.90000000000000002
aF0.90000000000000002
aF0.90000000000000002
aF0.90000000000000002
aF0.90000000000000002
aF0.90000000000000002
aF0.90000000000000002
aF0.90000000000000002
aF0.90000000000000002
aF0.90000000000000002
aF0.90000000000000002
aF0.90000000000000002
aF0.90000000000000002
aF0.90000000000000002
aF0.90000000000000002
aF0.90000000000000002
aF0.90000000000000002
aF0.90000000000000002
aF0.90000000000000002
aF0.90000000000000002
aF0.90000000000000002
aF0.90000000000000002
aF0.90000000000000002
aF0.90000000000000002
aF0.90000000000000002
aF0.90000000000000002
aF0.90000000000000002
aF0.90000000000000002
aF0.90000000000000002
aF0.90000000000000002
aF0.90000000000000002
aF0.90000000000000002
aF0.90000000000000002
aF0.90000000000000002
aF0.90000000000000002
aF0.90000000000000002
aF0.90000000000000002
aF0.90000000000000002
aF0.90000000000000002
aF0.90000000000000002
aF0.90000000000000002
aF0.90000000000000002
aF0.90000000000000002
aF0.90000000000000002
aF0.90000000000000002
aF0.90000000000000002
aF0.90000000000000002
aF0.90000000000000002
aF0.90000000000000002
aF0.90000000000000002
aF0.90000000000000002
aF0.90000000000000002
aF0.90000000000000002
aF0.90000000000000002
aF0.90000000000000002
aF0.90000000000000002
aF0.90000000000000002
aF0.90000000000000002
aF0.90000000000000002
aF0.90000000000000002
aF0.90000000000000002
aF0.90000000000000002
aF0.90000000000000002
aF0.90000000000000002
aF0.90000000000000002
aF0.90000000000000002
aF0.90000000000000002
aF0.90000000000000002
aF0.90000000000000002
aF0.90000000000000002
aF0.90000000000000002
aF0.90000000000000002
aF0.90000000000000002
aF0.90000000000000002
aF0.90000000000000002
aF0.90000000000000002
aF0.90000000000000002
aF0.90000000000000002
aF0.90000000000000002
aF1
aF1
aF1
aF1
aF1
aF1
aF1
aF1
aF1
aF1
aF1
aF1
aF1
aF1
aF1
aF1
aF1
aF1
aF1
aF1
aF1
aF1
aF1
aF1
aF1
aF1
aF1
aF1
aF1
aF1
aF1
aF1
aF1
aF1
aF1
aF1
aF1
aF1
aF1
aF1
aF1
aF1
aF1
aF1
aF1
aF1
aF1
aF1
aF1
aF1
aF1.2
aF1.2
aF1.2
aF1.2
aF1.2
aF1.2
aF1.2
aF1.2
aF1.2
aF1.2
aF1.2
aF1.2
aF1.2
aF1.2
aF1.2
aF1.2
aF1.2
aF1.2
aF1.2
aF1.2
aF1.2
aF1.2
aF1.2
aF1.2
aF1.2
aF1.2
aF1.2
aF1.2
aF1.2
aF1.2
aF1.2
aF1.2
aF1.2
aF1.2
aF1.2
aF1.2
aF1.2
aF1.2
aF1.2
aF1.2
aF1.2
aF1.2
aF1.3999999999999999
aF1.3999999999999999
aF1.3999999999999999
aF1.3999999999999999
aF1.3999999999999999
aF1.3999999999999999
aF1.3999999999999999
aF1.3999999999999999
aF1.3999999999999999
aF1.3999999999999999
aF1.3999999999999999
aF1.3999999999999999
aF1.5
aF1.5
aF1.5
aF1.5
aF1.5
aF1.5
aF1.5
aF1.5
aF1.5
aF1.5
aF1.5
aF1.5
aF1.5
aF1.5
aF1.5
aF1.5
aF1.5
aF1.5
aF1.5
aF1.5
aF1.5
aF1.5
aF1.5
aF1.5
aF1.5
aF1.5
aF1.5
aF1.5
aF1.5
aF1.5
aF1.5
aF1.5
aF1.5
aF1.5
aF1.5
aF1.5
aF1.5
aF1.5
aF1.5
aF1.5
aF1.5
aF1.5
aF1.5
aF1.5
aF1.5
aF1.5
aF1.5
aF1.5
aF1.5
aF1.5
aF1.5
aF1.5
aF1.5
aF1.5
aF1.5
aF1.5
aF1.5
aF1.5
aF1.5
aF1.5
aF1.5
aF1.5
aF1.5
aF1.5
aF1.5
aF1.5
aF1.5
aF1.5
aF1.5
aF1.5
aF1.5
aF1.5
aF1.5
aF1.5
aF1.5
aF1.5
aF1.5
aF1.5
aF1.5
aF1.6000000000000001
aF1.6000000000000001
aF1.6000000000000001
aF1.6000000000000001
aF1.6000000000000001
aF1.6000000000000001
aF1.7
aF1.7
aF1.7
aF1.7
aF1.7
aF1.7
aF1.7
aF1.7
aF1.7
aF1.7
aF1.7
aF1.7
aF1.7
aF1.7
aF1.7
aF1.7
aF1.7
aF1.7
aF1.7
aF1.7
aF1.7
aF1.7
aF1.7
aF1.7
aF1.7
aF1.8999999999999999
aF1.8999999999999999
aF1.8999999999999999
aF1.8999999999999999
aF1.8999999999999999
aF1.8999999999999999
aF1.8999999999999999
aF1.8999999999999999
aF1.8999999999999999
aF1.8999999999999999
aF1.8999999999999999
aF1.8999999999999999
aF2.2000000000000002
aF2.2000000000000002
aF2.2000000000000002
aF2.2599999999999998
aF2.2599999999999998
aF2.2599999999999998
aF2.2599999999999998
aF2.2599999999999998
aF2.2999999999999998
aF2.2999999999999998
aF2.2999999999999998
aF2.2999999999999998
aF2.2999999999999998
a.