(lp1
F0.34999999999999998
aF1.3
aF1.3799999999999999
aF1.5
aF1.7
aF1.76
aF1.8
aF1.8
aF1.8
aF1.8999999999999999
aF1.9199999999999999
aF2
aF2
aF2
aF2
aF2
aF2
aF2
aF2
aF2
aF2
aF2
aF2
aF2
aF2.1000000000000001
aF2.1000000000000001
aF2.2000000000000002
aF2.2000000000000002
aF2.2000000000000002
aF2.2000000000000002
aF2.2000000000000002
aF2.2000000000000002
aF2.2000000000000002
aF2.2000000000000002
aF2.2000000000000002
aF2.2000000000000002
aF2.2000000000000002
aF2.2000000000000002
aF2.2000000000000002
aF2.2000000000000002
aF2.2000000000000002
aF2.2000000000000002
aF2.2000000000000002
aF2.2000000000000002
aF2.2000000000000002
aF2.3999999999999999
aF2.3999999999999999
aF2.3999999999999999
aF2.3999999999999999
aF2.3999999999999999
aF2.3999999999999999
aF2.3999999999999999
aF2.3999999999999999
aF2.3999999999999999
aF2.3999999999999999
aF2.3999999999999999
aF2.3999999999999999
aF2.3999999999999999
aF2.3999999999999999
aF2.3999999999999999
aF2.3999999999999999
aF2.3999999999999999
aF2.3999999999999999
aF2.3999999999999999
aF2.3999999999999999
aF2.3999999999999999
aF2.3999999999999999
aF2.3999999999999999
aF2.3999999999999999
aF2.3999999999999999
aF2.3999999999999999
aF2.3999999999999999
aF2.4399999999999999
aF2.4399999999999999
aF2.4500000000000002
aF2.4500000000000002
aF2.5
aF2.5
aF2.5
aF2.5499999999999998
aF2.6000000000000001
aF2.6000000000000001
aF2.6000000000000001
aF2.6000000000000001
aF2.6000000000000001
aF2.6000000000000001
aF2.6000000000000001
aF2.6000000000000001
aF2.6000000000000001
aF2.6000000000000001
aF2.6000000000000001
aF2.6000000000000001
aF2.6000000000000001
aF2.6000000000000001
aF2.6000000000000001
aF2.6000000000000001
aF2.6000000000000001
aF2.6000000000000001
aF2.6000000000000001
aF2.6299999999999999
aF2.6299999999999999
aF2.6600000000000001
aF2.6600000000000001
aF2.7999999999999998
aF2.7999999999999998
aF2.7999999999999998
aF2.7999999999999998
aF2.7999999999999998
aF2.7999999999999998
aF2.7999999999999998
aF2.7999999999999998
aF2.7999999999999998
aF2.7999999999999998
aF2.7999999999999998
aF2.7999999999999998
aF2.7999999999999998
aF2.7999999999999998
aF2.7999999999999998
aF2.7999999999999998
aF2.7999999999999998
aF2.7999999999999998
aF2.7999999999999998
aF2.7999999999999998
aF2.7999999999999998
aF2.7999999999999998
aF2.8999999999999999
aF3
aF3
aF3
aF3
aF3
aF3
aF3
aF3
aF3
aF3
aF3
aF3
aF3
aF3
aF3
aF3
aF3
aF3
aF3
aF3
aF3
aF3.1000000000000001
aF3.1000000000000001
aF3.1000000000000001
aF3.1000000000000001
aF3.1000000000000001
aF3.1000000000000001
aF3.1000000000000001
aF3.1000000000000001
aF3.1000000000000001
aF3.1000000000000001
aF3.1000000000000001
aF3.1000000000000001
aF3.1000000000000001
aF3.2000000000000002
aF3.2000000000000002
aF3.2000000000000002
aF3.2000000000000002
aF3.2000000000000002
aF3.2000000000000002
aF3.2000000000000002
aF3.2000000000000002
aF3.2000000000000002
aF3.2000000000000002
aF3.2000000000000002
aF3.2000000000000002
aF3.2000000000000002
aF3.2000000000000002
aF3.2000000000000002
aF3.2000000000000002
aF3.2000000000000002
aF3.2000000000000002
aF3.2000000000000002
aF3.2000000000000002
aF3.2000000000000002
aF3.2000000000000002
aF3.2000000000000002
aF3.2000000000000002
aF3.25
aF3.2999999999999998
aF3.3999999999999999
aF3.5
aF3.5
aF3.5
aF3.5
aF3.5
aF3.5
aF3.5
aF3.5
aF3.5
aF3.5
aF3.5
aF3.5
aF3.5
aF3.5
aF3.5
aF3.6000000000000001
aF3.6000000000000001
aF3.6000000000000001
aF3.7000000000000002
aF3.7000000000000002
aF3.7000000000000002
aF3.7000000000000002
aF3.7000000000000002
aF3.7000000000000002
aF3.7000000000000002
aF3.7000000000000002
aF3.7000000000000002
aF3.7000000000000002
aF3.7000000000000002
aF3.7000000000000002
aF3.7000000000000002
aF3.7000000000000002
aF3.7000000000000002
aF3.7000000000000002
aF3.7000000000000002
aF3.7000000000000002
aF3.7000000000000002
aF3.7000000000000002
aF3.7999999999999998
aF3.7999999999999998
aF3.7999999999999998
aF3.7999999999999998
aF3.7999999999999998
aF3.7999999999999998
aF3.7999999999999998
aF4
aF4
aF4
aF4
aF4
aF4
aF4
aF4
aF4
aF4
aF4
aF4
aF4
aF4
aF4
aF4
aF4
aF4
aF4
aF4
aF4
aF4
aF4
aF4
aF4
aF4
aF4
aF4
aF4
aF4
aF4.2000000000000002
aF4.2000000000000002
aF4.2000000000000002
aF4.2999999999999998
aF4.2999999999999998
aF4.2999999999999998
aF4.2999999999999998
aF4.2999999999999998
aF4.2999999999999998
aF4.2999999999999998
aF4.2999999999999998
aF4.2999999999999998
aF4.2999999999999998
aF4.2999999999999998
aF4.2999999999999998
aF4.2999999999999998
aF4.2999999999999998
aF4.2999999999999998
aF4.2999999999999998
aF4.2999999999999998
aF4.2999999999999998
aF4.2999999999999998
aF4.2999999999999998
aF4.2999999999999998
aF4.2999999999999998
aF4.2999999999999998
aF4.2999999999999998
aF4.2999999999999998
aF4.2999999999999998
aF4.2999999999999998
aF4.2999999999999998
aF4.2999999999999998
aF4.2999999999999998
aF4.2999999999999998
aF4.2999999999999998
aF4.2999999999999998
aF4.2999999999999998
aF4.2999999999999998
aF4.2999999999999998
aF4.2999999999999998
aF4.2999999999999998
aF4.2999999999999998
aF4.2999999999999998
aF4.2999999999999998
aF4.2999999999999998
aF4.2999999999999998
aF4.2999999999999998
aF4.2999999999999998
aF4.2999999999999998
aF4.2999999999999998
aF4.2999999999999998
aF4.2999999999999998
aF4.2999999999999998
aF4.2999999999999998
aF4.5
aF4.5
aF4.5
aF4.5
aF4.5
aF4.5
aF4.5
aF4.5
aF4.5
aF4.5
aF4.5
aF4.5
aF4.5
aF4.5
aF4.5
aF4.5
aF4.5
aF4.5
aF4.5199999999999996
aF4.5199999999999996
aF4.5199999999999996
aF4.5199999999999996
aF4.5999999999999996
aF4.5999999999999996
aF4.6500000000000004
aF4.6500000000000004
aF4.7000000000000002
aF4.7000000000000002
aF4.7000000000000002
aF4.7000000000000002
aF4.7000000000000002
aF4.7000000000000002
aF4.7000000000000002
aF4.7000000000000002
aF4.7000000000000002
aF4.7000000000000002
aF4.7000000000000002
aF4.7000000000000002
aF4.7000000000000002
aF4.7000000000000002
aF4.7000000000000002
aF4.7000000000000002
aF4.7000000000000002
aF4.7000000000000002
aF4.7000000000000002
aF4.7000000000000002
aF4.7000000000000002
aF4.7000000000000002
aF4.7000000000000002
aF4.7000000000000002
aF4.7000000000000002
aF4.7000000000000002
aF4.7000000000000002
aF4.7000000000000002
aF4.7999999999999998
aF4.7999999999999998
aF4.7999999999999998
aF4.7999999999999998
aF4.7999999999999998
aF4.7999999999999998
aF4.7999999999999998
aF4.7999999999999998
aF4.7999999999999998
aF4.7999999999999998
aF4.7999999999999998
aF4.7999999999999998
aF4.7999999999999998
aF4.7999999999999998
aF4.7999999999999998
aF4.7999999999999998
aF5
aF5
aF5
aF5
aF5
aF5
aF5
aF5
aF5
aF5
aF5
aF5
aF5
aF5
aF5
aF5
aF5
aF5
aF5
aF5
aF5
aF5.2000000000000002
aF5.2000000000000002
aF5.2000000000000002
aF5.2000000000000002
aF5.2000000000000002
aF5.2999999999999998
aF5.2999999999999998
aF5.5
aF5.5
aF5.5
aF5.5
aF5.5
aF5.5
aF5.5
aF5.5
aF5.7000000000000002
aF5.7000000000000002
aF5.7000000000000002
aF5.7000000000000002
aF5.7000000000000002
aF6
aF6.2999999999999998
aF6.2999999999999998
aF6.2999999999999998
a.